target datalayout = "e-m:e-p270:32:32-p271:32:32-p272:64:64-i64:64-i128:128-f80:128-n8:16:32:64-S128"
target triple = "x86_64-pc-linux-gnu"

%class.State = type { [315 x i32], [315 x i16], i32, ptr, [2 x ptr] }

; Function Attrs: mustprogress nounwind uwtable
define hidden void @_ZN5State20_sub_Op_OverflowAddLEPK4Node(ptr noundef nonnull align 8 dereferenceable(1920) %0, ptr noundef %1) #1 align 2 {
  %3 = alloca ptr, align 8
  %4 = alloca ptr, align 8
  %5 = alloca i32, align 4
  %6 = alloca i32, align 4
  store ptr %0, ptr %3, align 8
  store ptr %1, ptr %4, align 8
  %7 = load ptr, ptr %3, align 8
  %8 = getelementptr inbounds %class.State, ptr %7, i32 0, i32 4
  %9 = getelementptr inbounds [2 x ptr], ptr %8, i64 0, i64 0
  %10 = load ptr, ptr %9, align 8
  %11 = icmp ne ptr %10, null
  br i1 %11, label %12, label %57

12:                                               ; preds = %2
  %13 = getelementptr inbounds %class.State, ptr %7, i32 0, i32 4
  %14 = getelementptr inbounds [2 x ptr], ptr %13, i64 0, i64 0
  %15 = load ptr, ptr %14, align 8
  %16 = getelementptr inbounds %class.State, ptr %15, i32 0, i32 1
  %17 = getelementptr inbounds [315 x i16], ptr %16, i64 0, i64 70
  %18 = load i16, ptr %17, align 4
  %19 = zext i16 %18 to i32
  %20 = and i32 %19, 1
  %21 = icmp ne i32 %20, 0
  br i1 %21, label %22, label %57

22:                                               ; preds = %12
  %23 = getelementptr inbounds %class.State, ptr %7, i32 0, i32 4
  %24 = getelementptr inbounds [2 x ptr], ptr %23, i64 0, i64 1
  %25 = load ptr, ptr %24, align 8
  %26 = icmp ne ptr %25, null
  br i1 %26, label %27, label %57

27:                                               ; preds = %22
  %28 = getelementptr inbounds %class.State, ptr %7, i32 0, i32 4
  %29 = getelementptr inbounds [2 x ptr], ptr %28, i64 0, i64 1
  %30 = load ptr, ptr %29, align 8
  %31 = getelementptr inbounds %class.State, ptr %30, i32 0, i32 1
  %32 = getelementptr inbounds [315 x i16], ptr %31, i64 0, i64 30
  %33 = load i16, ptr %32, align 4
  %34 = zext i16 %33 to i32
  %35 = and i32 %34, 1
  %36 = icmp ne i32 %35, 0
  br i1 %36, label %37, label %57

37:                                               ; preds = %27
  %38 = getelementptr inbounds %class.State, ptr %7, i32 0, i32 4
  %39 = getelementptr inbounds [2 x ptr], ptr %38, i64 0, i64 0
  %40 = load ptr, ptr %39, align 8
  %41 = getelementptr inbounds %class.State, ptr %40, i32 0, i32 0
  %42 = getelementptr inbounds [315 x i32], ptr %41, i64 0, i64 70
  %43 = load i32, ptr %42, align 8
  %44 = getelementptr inbounds %class.State, ptr %7, i32 0, i32 4
  %45 = getelementptr inbounds [2 x ptr], ptr %44, i64 0, i64 1
  %46 = load ptr, ptr %45, align 8
  %47 = getelementptr inbounds %class.State, ptr %46, i32 0, i32 0
  %48 = getelementptr inbounds [315 x i32], ptr %47, i64 0, i64 30
  %49 = load i32, ptr %48, align 8
  %50 = add i32 %43, %49
  %51 = add i32 %50, 100
  store i32 %51, ptr %5, align 4
  %52 = load i32, ptr %5, align 4
  %53 = getelementptr inbounds %class.State, ptr %7, i32 0, i32 0
  %54 = getelementptr inbounds [315 x i32], ptr %53, i64 0, i64 75
  store i32 %52, ptr %54, align 4
  %55 = getelementptr inbounds %class.State, ptr %7, i32 0, i32 1
  %56 = getelementptr inbounds [315 x i16], ptr %55, i64 0, i64 75
  store i16 793, ptr %56, align 2
  br label %57

57:                                               ; preds = %37, %27, %22, %12, %2
  %58 = getelementptr inbounds %class.State, ptr %7, i32 0, i32 4
  %59 = getelementptr inbounds [2 x ptr], ptr %58, i64 0, i64 0
  %60 = load ptr, ptr %59, align 8
  %61 = icmp ne ptr %60, null
  br i1 %61, label %62, label %121

62:                                               ; preds = %57
  %63 = getelementptr inbounds %class.State, ptr %7, i32 0, i32 4
  %64 = getelementptr inbounds [2 x ptr], ptr %63, i64 0, i64 0
  %65 = load ptr, ptr %64, align 8
  %66 = getelementptr inbounds %class.State, ptr %65, i32 0, i32 1
  %67 = getelementptr inbounds [315 x i16], ptr %66, i64 0, i64 70
  %68 = load i16, ptr %67, align 4
  %69 = zext i16 %68 to i32
  %70 = and i32 %69, 1
  %71 = icmp ne i32 %70, 0
  br i1 %71, label %72, label %121

72:                                               ; preds = %62
  %73 = getelementptr inbounds %class.State, ptr %7, i32 0, i32 4
  %74 = getelementptr inbounds [2 x ptr], ptr %73, i64 0, i64 1
  %75 = load ptr, ptr %74, align 8
  %76 = icmp ne ptr %75, null
  br i1 %76, label %77, label %121

77:                                               ; preds = %72
  %78 = getelementptr inbounds %class.State, ptr %7, i32 0, i32 4
  %79 = getelementptr inbounds [2 x ptr], ptr %78, i64 0, i64 1
  %80 = load ptr, ptr %79, align 8
  %81 = getelementptr inbounds %class.State, ptr %80, i32 0, i32 1
  %82 = getelementptr inbounds [315 x i16], ptr %81, i64 0, i64 68
  %83 = load i16, ptr %82, align 4
  %84 = zext i16 %83 to i32
  %85 = and i32 %84, 1
  %86 = icmp ne i32 %85, 0
  br i1 %86, label %87, label %121

87:                                               ; preds = %77
  %88 = getelementptr inbounds %class.State, ptr %7, i32 0, i32 4
  %89 = getelementptr inbounds [2 x ptr], ptr %88, i64 0, i64 0
  %90 = load ptr, ptr %89, align 8
  %91 = getelementptr inbounds %class.State, ptr %90, i32 0, i32 0
  %92 = getelementptr inbounds [315 x i32], ptr %91, i64 0, i64 70
  %93 = load i32, ptr %92, align 8
  %94 = getelementptr inbounds %class.State, ptr %7, i32 0, i32 4
  %95 = getelementptr inbounds [2 x ptr], ptr %94, i64 0, i64 1
  %96 = load ptr, ptr %95, align 8
  %97 = getelementptr inbounds %class.State, ptr %96, i32 0, i32 0
  %98 = getelementptr inbounds [315 x i32], ptr %97, i64 0, i64 68
  %99 = load i32, ptr %98, align 8
  %100 = add i32 %93, %99
  %101 = add i32 %100, 100
  store i32 %101, ptr %6, align 4
  %102 = getelementptr inbounds %class.State, ptr %7, i32 0, i32 1
  %103 = getelementptr inbounds [315 x i16], ptr %102, i64 0, i64 75
  %104 = load i16, ptr %103, align 2
  %105 = zext i16 %104 to i32
  %106 = and i32 %105, 1
  %107 = icmp eq i32 %106, 0
  br i1 %107, label %114, label %108

108:                                              ; preds = %87
  %109 = getelementptr inbounds %class.State, ptr %7, i32 0, i32 0
  %110 = getelementptr inbounds [315 x i32], ptr %109, i64 0, i64 75
  %111 = load i32, ptr %110, align 4
  %112 = load i32, ptr %6, align 4
  %113 = icmp ugt i32 %111, %112
  br i1 %113, label %114, label %120

114:                                              ; preds = %108, %87
  %115 = load i32, ptr %6, align 4
  %116 = getelementptr inbounds %class.State, ptr %7, i32 0, i32 0
  %117 = getelementptr inbounds [315 x i32], ptr %116, i64 0, i64 75
  store i32 %115, ptr %117, align 4
  %118 = getelementptr inbounds %class.State, ptr %7, i32 0, i32 1
  %119 = getelementptr inbounds [315 x i16], ptr %118, i64 0, i64 75
  store i16 791, ptr %119, align 2
  br label %120

120:                                              ; preds = %114, %108
  br label %121

121:                                              ; preds = %120, %77, %72, %62, %57
  ret void
}