; Function Attrs: mustprogress nofree norecurse nosync nounwind willreturn memory(read, argmem: readwrite, inaccessiblemem: none) uwtable
define hidden void @_ZN5State20_sub_Op_OverflowAddLEPK4Node(ptr nocapture noundef nonnull align 8 dereferenceable(1920) %0, ptr nocapture readnone %1) local_unnamed_addr #1 align 2 {
  %3 = getelementptr inbounds i8, ptr %0, i64 1904
  %4 = load ptr, ptr %3, align 8
  %.not = icmp eq ptr %4, null
  br i1 %.not, label %.thread17, label %5

5:                                                ; preds = %2
  %6 = getelementptr inbounds i8, ptr %4, i64 1400
  %7 = load i16, ptr %6, align 4
  %8 = and i16 %7, 1
  %.not6 = icmp eq i16 %8, 0
  br i1 %.not6, label %.thread17, label %9

9:                                                ; preds = %5
  %10 = getelementptr inbounds i8, ptr %0, i64 1912
  %11 = load ptr, ptr %10, align 8
  %.not7 = icmp eq ptr %11, null
  br i1 %.not7, label %.thread, label %12

12:                                               ; preds = %9
  %13 = getelementptr inbounds i8, ptr %11, i64 1320
  %14 = load i16, ptr %13, align 4
  %15 = and i16 %14, 1
  %.not8 = icmp eq i16 %15, 0
  br i1 %.not8, label %.thread, label %16

16:                                               ; preds = %12
  %17 = getelementptr inbounds i8, ptr %4, i64 280
  %18 = load i32, ptr %17, align 8
  %19 = getelementptr inbounds i8, ptr %11, i64 120
  %20 = load i32, ptr %19, align 8
  %21 = add i32 %18, 100
  %22 = add i32 %21, %20
  %23 = getelementptr inbounds i8, ptr %0, i64 300
  store i32 %22, ptr %23, align 4
  %24 = getelementptr inbounds i8, ptr %0, i64 1410
  store i16 793, ptr %24, align 2
  %.pre = load i16, ptr %6, align 4
  %.pre15 = and i16 %.pre, 1
  %25 = icmp eq i16 %.pre15, 0
  br i1 %25, label %.thread17, label %.thread

.thread:                                          ; preds = %9, %12, %16
  %26 = getelementptr inbounds i8, ptr %0, i64 1912
  %27 = load ptr, ptr %26, align 8
  %.not11 = icmp eq ptr %27, null
  br i1 %.not11, label %.thread17, label %28

28:                                               ; preds = %.thread
  %29 = getelementptr inbounds i8, ptr %27, i64 1396
  %30 = load i16, ptr %29, align 4
  %31 = and i16 %30, 1
  %.not12 = icmp eq i16 %31, 0
  br i1 %.not12, label %.thread17, label %32

32:                                               ; preds = %28
  %33 = getelementptr inbounds i8, ptr %4, i64 280
  %34 = load i32, ptr %33, align 8
  %35 = getelementptr inbounds i8, ptr %27, i64 272
  %36 = load i32, ptr %35, align 8
  %37 = add i32 %34, 100
  %38 = add i32 %37, %36
  %39 = getelementptr inbounds i8, ptr %0, i64 1410
  %40 = load i16, ptr %39, align 2
  %41 = and i16 %40, 1
  %42 = icmp eq i16 %41, 0
  %43 = getelementptr inbounds i8, ptr %0, i64 300
  %44 = load i32, ptr %43, align 4
  %45 = icmp ugt i32 %44, %38
  %or.cond = select i1 %42, i1 true, i1 %45
  br i1 %or.cond, label %46, label %.thread17

46:                                               ; preds = %32
  store i32 %38, ptr %43, align 4
  store i16 791, ptr %39, align 2
  br label %.thread17

.thread17:                                        ; preds = %5, %2, %32, %46, %28, %.thread, %16
  ret void
}